target datalayout = "e-m:e-p270:32:32-p271:32:32-p272:64:64-i64:64-i128:128-f80:128-n8:16:32:64-S128"
target triple = "x86_64-pc-linux-gnu"

@_ZN4base8FilePath17kSeparatorsLengthE = external constant i64, align 8
@_ZN4base8FilePath11kSeparatorsE = external constant [0 x i8], align 1

; Function Attrs: mustprogress nounwind uwtable
define noundef zeroext i1 @_ZN4base8FilePath11IsSeparatorEc(i8 noundef signext %0) #0 align 2 {
  %2 = alloca i1, align 1
  %3 = alloca i8, align 1
  %4 = alloca i64, align 8
  %5 = alloca i32, align 4
  store i8 %0, ptr %3, align 1, !tbaa !14
  call void @llvm.lifetime.start.p0(i64 8, ptr %4) #15
  store i64 0, ptr %4, align 8, !tbaa !10
  br label %6

6:                                                ; preds = %22, %1
  %7 = load i64, ptr %4, align 8, !tbaa !10
  %8 = load i64, ptr @_ZN4base8FilePath17kSeparatorsLengthE, align 8, !tbaa !10
  %9 = sub i64 %8, 1
  %10 = icmp ult i64 %7, %9
  br i1 %10, label %12, label %11

11:                                               ; preds = %6
  store i32 2, ptr %5, align 4
  br label %25

12:                                               ; preds = %6
  %13 = load i8, ptr %3, align 1, !tbaa !14
  %14 = sext i8 %13 to i32
  %15 = load i64, ptr %4, align 8, !tbaa !10
  %16 = getelementptr inbounds nuw [0 x i8], ptr @_ZN4base8FilePath11kSeparatorsE, i64 0, i64 %15
  %17 = load i8, ptr %16, align 1, !tbaa !14
  %18 = sext i8 %17 to i32
  %19 = icmp eq i32 %14, %18
  br i1 %19, label %20, label %21

20:                                               ; preds = %12
  store i1 true, ptr %2, align 1
  store i32 1, ptr %5, align 4
  br label %25

21:                                               ; preds = %12
  br label %22

22:                                               ; preds = %21
  %23 = load i64, ptr %4, align 8, !tbaa !10
  %24 = add i64 %23, 1
  store i64 %24, ptr %4, align 8, !tbaa !10
  br label %6, !llvm.loop !15

25:                                               ; preds = %20, %11
  call void @llvm.lifetime.end.p0(i64 8, ptr %4) #15
  %26 = load i32, ptr %5, align 4
  switch i32 %26, label %30 [
    i32 2, label %27
    i32 1, label %28
  ]

27:                                               ; preds = %25
  store i1 false, ptr %2, align 1
  br label %28

28:                                               ; preds = %27, %25
  %29 = load i1, ptr %2, align 1
  ret i1 %29

30:                                               ; preds = %25
  unreachable
}