; Function Attrs: mustprogress nofree norecurse nosync nounwind willreturn memory(none) uwtable
define noundef zeroext i1 @_ZN4base8FilePath11IsSeparatorEc(i8 noundef signext %0) local_unnamed_addr #6 align 2 {
  %2 = load i64, ptr @_ZN4base8FilePath17kSeparatorsLengthE, align 8, !tbaa !14
  %3 = add i64 %2, -1
  %.not7.not = icmp eq i64 %3, 0
  br i1 %.not7.not, label %._crit_edge, label %.lr.ph

.lr.ph:                                           ; preds = %1, %.lr.ph
  %.058 = phi i64 [ %7, %.lr.ph ], [ 0, %1 ]
  %4 = getelementptr inbounds nuw [0 x i8], ptr @_ZN4base8FilePath11kSeparatorsE, i64 0, i64 %.058
  %5 = load i8, ptr %4, align 1, !tbaa !12
  %6 = icmp eq i8 %0, %5
  %7 = add nuw i64 %.058, 1
  %exitcond.not = icmp eq i64 %7, %3
  %or.cond = select i1 %6, i1 true, i1 %exitcond.not
  br i1 %or.cond, label %._crit_edge, label %.lr.ph, !llvm.loop !15

._crit_edge:                                      ; preds = %.lr.ph, %1
  %.not.lcssa = phi i1 [ false, %1 ], [ %6, %.lr.ph ]
  ret i1 %.not.lcssa
}